; Function Attrs: mustprogress nofree nounwind null_pointer_is_valid sspstrong willreturn memory(read, inaccessiblemem: none) uwtable
define internal range(i32 0, 2) i32 @addr_port_key_equal_fn(ptr noundef readonly captures(none) %0, ptr noundef readonly captures(none) %1) #10 {
  %3 = getelementptr inbounds nuw i8, ptr %0, i64 24
  %4 = load i16, ptr %3, align 8
  %5 = getelementptr inbounds nuw i8, ptr %1, i64 24
  %6 = load i16, ptr %5, align 8
  %.not = icmp eq i16 %4, %6
  br i1 %.not, label %7, label %addresses_equal.exit

7:                                                ; preds = %2
  %8 = load i32, ptr %0, align 8
  %9 = load i32, ptr %1, align 8
  %10 = icmp eq i32 %8, %9
  br i1 %10, label %11, label %26

11:                                               ; preds = %7
  %12 = getelementptr inbounds nuw i8, ptr %0, i64 4
  %13 = load i32, ptr %12, align 4
  %14 = getelementptr inbounds nuw i8, ptr %1, i64 4
  %15 = load i32, ptr %14, align 4
  %16 = icmp eq i32 %13, %15
  br i1 %16, label %17, label %26

17:                                               ; preds = %11
  %18 = icmp eq i32 %13, 0
  br i1 %18, label %addresses_equal.exit, label %19

19:                                               ; preds = %17
  %20 = getelementptr inbounds nuw i8, ptr %0, i64 8
  %21 = load ptr, ptr %20, align 8
  %22 = getelementptr inbounds nuw i8, ptr %1, i64 8
  %23 = load ptr, ptr %22, align 8
  %24 = sext i32 %13 to i64
  %bcmp.i = tail call i32 @bcmp(ptr %21, ptr %23, i64 %24)
  %25 = icmp eq i32 %bcmp.i, 0
  br i1 %25, label %addresses_equal.exit, label %26

26:                                               ; preds = %19, %11, %7
  br label %addresses_equal.exit

addresses_equal.exit:                             ; preds = %26, %19, %17, %2
  %.0 = phi i32 [ 0, %2 ], [ 0, %26 ], [ 1, %19 ], [ 1, %17 ]
  ret i32 %.0
}